; Function Attrs: mustprogress nounwind uwtable
define hidden noundef ptr @_ZNK11ConvI2LNode5ValueEP8PhaseGVN(ptr nocapture noundef nonnull readonly align 8 dereferenceable(64) %0, ptr nocapture noundef readonly %1) unnamed_addr #1 align 2 {
  %3 = getelementptr inbounds i8, ptr %0, i64 8
  %4 = load ptr, ptr %3, align 8
  %5 = getelementptr inbounds i8, ptr %4, i64 8
  %6 = load ptr, ptr %5, align 8
  %7 = getelementptr inbounds i8, ptr %1, i64 40
  %8 = load ptr, ptr %7, align 8
  %9 = getelementptr inbounds i8, ptr %6, i64 40
  %10 = load i32, ptr %9, align 8
  %11 = getelementptr inbounds i8, ptr %8, i64 16
  %12 = load ptr, ptr %11, align 8
  %13 = zext i32 %10 to i64
  %14 = getelementptr inbounds ptr, ptr %12, i64 %13
  %15 = load ptr, ptr %14, align 8
  %16 = load ptr, ptr @_ZN4Type3TOPE, align 8
  %17 = icmp eq ptr %15, %16
  br i1 %17, label %89, label %18

18:                                               ; preds = %2
  %19 = getelementptr inbounds i8, ptr %15, i64 24
  %20 = load i32, ptr %19, align 8
  %21 = sext i32 %20 to i64
  %22 = getelementptr inbounds i8, ptr %15, i64 28
  %23 = load i32, ptr %22, align 4
  %24 = sext i32 %23 to i64
  %25 = getelementptr inbounds i8, ptr %15, i64 20
  %26 = load i16, ptr %25, align 4
  %27 = sext i16 %26 to i32
  %28 = tail call noundef ptr @_ZN8TypeLong4makeElli(i64 noundef %21, i64 noundef %24, i32 noundef %27) #8
  %29 = getelementptr inbounds i8, ptr %0, i64 56
  %30 = load ptr, ptr %29, align 8
  %31 = load ptr, ptr %28, align 8
  %32 = getelementptr inbounds i8, ptr %31, i64 8
  %33 = load ptr, ptr %32, align 8
  %34 = tail call noundef ptr %33(ptr noundef nonnull align 8 dereferenceable(20) %28, ptr noundef %30, i1 noundef zeroext false) #8
  %35 = getelementptr inbounds i8, ptr %34, i64 16
  %36 = load i32, ptr %35, align 8
  %37 = icmp ne i32 %36, 4
  %.not39 = icmp eq ptr %34, null
  %.not = or i1 %.not39, %37
  br i1 %.not, label %89, label %38

38:                                               ; preds = %18
  %39 = getelementptr inbounds i8, ptr %1, i64 16
  %40 = load ptr, ptr %39, align 8
  %41 = getelementptr inbounds i8, ptr %40, i64 112
  %42 = load i8, ptr %41, align 8
  %43 = trunc i8 %42 to i1
  br i1 %43, label %44, label %89

44:                                               ; preds = %38
  %45 = load ptr, ptr %3, align 8
  %46 = getelementptr inbounds i8, ptr %45, i64 8
  %47 = load ptr, ptr %46, align 8
  %48 = load ptr, ptr %7, align 8
  %49 = getelementptr inbounds i8, ptr %47, i64 40
  %50 = load i32, ptr %49, align 8
  %51 = getelementptr inbounds i8, ptr %48, i64 16
  %52 = load ptr, ptr %51, align 8
  %53 = zext i32 %50 to i64
  %54 = getelementptr inbounds ptr, ptr %52, i64 %53
  %55 = load ptr, ptr %54, align 8
  %56 = getelementptr inbounds i8, ptr %55, i64 16
  %57 = load i32, ptr %56, align 8
  %58 = icmp ne i32 %57, 3
  %.not3540 = icmp eq ptr %55, null
  %.not35 = or i1 %.not3540, %58
  br i1 %.not35, label %89, label %59

59:                                               ; preds = %44
  %60 = getelementptr inbounds i8, ptr %55, i64 24
  %61 = load i32, ptr %60, align 8
  %62 = sext i32 %61 to i64
  %63 = getelementptr inbounds i8, ptr %34, i64 24
  %64 = load i64, ptr %63, align 8
  %.not36 = icmp eq i64 %64, %62
  br i1 %.not36, label %65, label %71

65:                                               ; preds = %59
  %66 = getelementptr inbounds i8, ptr %55, i64 28
  %67 = load i32, ptr %66, align 4
  %68 = sext i32 %67 to i64
  %69 = getelementptr inbounds i8, ptr %34, i64 32
  %70 = load i64, ptr %69, align 8
  %.not37 = icmp eq i64 %70, %68
  br i1 %.not37, label %89, label %71

71:                                               ; preds = %65, %59
  %72 = getelementptr inbounds i8, ptr %34, i64 20
  %73 = load i16, ptr %72, align 4
  %74 = icmp sgt i64 %64, -1
  br i1 %74, label %78, label %75

75:                                               ; preds = %71
  %76 = getelementptr inbounds i8, ptr %34, i64 32
  %77 = load i64, ptr %76, align 8
  %.inv = icmp sgt i64 %77, -1
  %. = select i1 %.inv, i64 2147483647, i64 -1
  br label %78

78:                                               ; preds = %75, %71
  %.031 = phi i64 [ 0, %71 ], [ -2147483648, %75 ]
  %.030 = phi i64 [ 2147483647, %71 ], [ %., %75 ]
  %79 = tail call noundef i64 @llvm.smax.i64(i64 %62, i64 %.031)
  %80 = getelementptr inbounds i8, ptr %55, i64 28
  %81 = load i32, ptr %80, align 4
  %82 = sext i32 %81 to i64
  %83 = tail call noundef i64 @llvm.smin.i64(i64 %82, i64 %.030)
  %84 = getelementptr inbounds i8, ptr %55, i64 20
  %85 = load i16, ptr %84, align 4
  %86 = tail call i16 @llvm.smax.i16(i16 %85, i16 %73)
  %87 = sext i16 %86 to i32
  %88 = tail call noundef ptr @_ZN8TypeLong4makeElli(i64 noundef %79, i64 noundef %83, i32 noundef %87) #8
  br label %89

89:                                               ; preds = %38, %65, %44, %18, %2, %78
  %.0 = phi ptr [ %88, %78 ], [ %16, %2 ], [ %34, %18 ], [ %34, %44 ], [ %34, %65 ], [ %34, %38 ]
  ret ptr %.0
}